; ModuleID = 'bench/linux/original/xhci-dbg.ll'
source_filename = "bench/linux/original/xhci-dbg.ll"
target datalayout = "e-m:e-p270:32:32-p271:32:32-p272:64:64-i64:64-i128:128-f80:128-n8:16:32:64-S128"
target triple = "x86_64-unknown-linux-gnu"

module asm ".section \22.export_symbol\22,\22a\22 ; __export_symbol_xhci_dbg_trace: ; .asciz \22GPL\22 ; .asciz \22\22 ; .balign 8 ; .quad xhci_dbg_trace ; .previous"

%struct.va_format = type { ptr, ptr }
%struct.__va_list_tag = type { i32, i32, ptr, ptr }

@__UNIQUE_ID___addressable_xhci_dbg_trace315 = internal global ptr @xhci_dbg_trace, section ".discard.addressable", align 8
@.str = private unnamed_addr constant [17 x i8] c"enabled/disabled\00", align 1
@.str.1 = private unnamed_addr constant [8 x i8] c"default\00", align 1
@.str.2 = private unnamed_addr constant [10 x i8] c"addressed\00", align 1
@.str.3 = private unnamed_addr constant [11 x i8] c"configured\00", align 1
@.str.4 = private unnamed_addr constant [9 x i8] c"reserved\00", align 1
@llvm.compiler.used = appending global [1 x ptr] [ptr @__UNIQUE_ID___addressable_xhci_dbg_trace315], section "llvm.metadata"

; Function Attrs: fn_ret_thunk_extern nounwind null_pointer_is_valid
define dso_local noundef nonnull ptr @xhci_get_slot_state(ptr noundef %0, ptr noundef %1) local_unnamed_addr #0 align 16 {
  %3 = tail call ptr @xhci_get_slot_ctx(ptr noundef %0, ptr noundef %1) #5
  %4 = getelementptr inbounds i8, ptr %3, i64 12
  %5 = load i32, ptr %4, align 4
  %6 = lshr i32 %5, 27
  switch i32 %6, label %10 [
    i32 0, label %11
    i32 1, label %7
    i32 2, label %8
    i32 3, label %9
  ]

7:                                                ; preds = %2
  br label %11

8:                                                ; preds = %2
  br label %11

9:                                                ; preds = %2
  br label %11

10:                                               ; preds = %2
  br label %11

11:                                               ; preds = %10, %9, %8, %7, %2
  %12 = phi ptr [ @.str.4, %10 ], [ @.str.3, %9 ], [ @.str.2, %8 ], [ @.str.1, %7 ], [ @.str, %2 ]
  ret ptr %12
}

; Function Attrs: mustprogress nocallback nofree nosync nounwind willreturn memory(argmem: readwrite)
declare void @llvm.lifetime.start.p0(i64 immarg, ptr nocapture) #1

; Function Attrs: null_pointer_is_valid
declare dso_local ptr @xhci_get_slot_ctx(ptr noundef, ptr noundef) local_unnamed_addr #2

; Function Attrs: mustprogress nocallback nofree nosync nounwind willreturn memory(argmem: readwrite)
declare void @llvm.lifetime.end.p0(i64 immarg, ptr nocapture) #1

; Function Attrs: fn_ret_thunk_extern nounwind null_pointer_is_valid
define dso_local void @xhci_dbg_trace(ptr nocapture readnone %0, ptr nocapture noundef readonly %1, ptr noundef %2, ...) #0 align 16 {
  %4 = alloca %struct.va_format, align 8
  %5 = alloca [1 x %struct.__va_list_tag], align 16
  call void @llvm.lifetime.start.p0(i64 16, ptr nonnull %4) #5
  call void @llvm.lifetime.start.p0(i64 24, ptr nonnull %5) #5
  call void @llvm.memset.p0.i64(ptr noundef nonnull align 16 dereferenceable(24) %5, i8 0, i64 24, i1 false), !annotation !5
  call void @llvm.va_start(ptr nonnull %5)
  store ptr %2, ptr %4, align 8
  %6 = getelementptr inbounds i8, ptr %4, i64 8
  store ptr %5, ptr %6, align 8
  call void %1(ptr noundef nonnull %4) #5
  call void @llvm.va_end(ptr nonnull %5)
  call void @llvm.lifetime.end.p0(i64 24, ptr nonnull %5) #5
  call void @llvm.lifetime.end.p0(i64 16, ptr nonnull %4) #5
  ret void
}

; Function Attrs: mustprogress nocallback nofree nounwind willreturn memory(argmem: write)
declare void @llvm.memset.p0.i64(ptr nocapture writeonly, i8, i64, i1 immarg) #3

; Function Attrs: mustprogress nocallback nofree nosync nounwind willreturn
declare void @llvm.va_start(ptr) #4

; Function Attrs: mustprogress nocallback nofree nosync nounwind willreturn
declare void @llvm.va_end(ptr) #4


!llvm.module.flags = !{!0, !1, !2, !3, !4}

!0 = !{i32 1, !"wchar_size", i32 2}
!1 = !{i32 8, !"cf-protection-branch", i32 1}
!2 = !{i32 4, !"function_return_thunk_extern", i32 1}
!3 = !{i32 4, !"indirect_branch_cs_prefix", i32 1}
!4 = !{i32 4, !"SkipRaxSetup", i32 1}
!5 = !{!"auto-init"}
